; Function Attrs: mustprogress nounwind uwtable
define dso_local void @_ZNK5clang4ento15BlockDataRegion7ProfileERN4llvm16FoldingSetNodeIDE(ptr nocapture noundef nonnull readonly align 8 dereferenceable(96) %0, ptr noundef nonnull align 8 dereferenceable(144) %1) unnamed_addr #3 align 2 {
  %3 = getelementptr inbounds nuw i8, ptr %0, i64 56
  %4 = load ptr, ptr %3, align 8
  %5 = getelementptr inbounds nuw i8, ptr %0, i64 64
  %6 = load ptr, ptr %5, align 8
  %7 = getelementptr inbounds nuw i8, ptr %0, i64 72
  %8 = load i32, ptr %7, align 8
  %9 = getelementptr inbounds nuw i8, ptr %0, i64 48
  %10 = load ptr, ptr %9, align 8
  tail call void @_ZN5clang4ento15BlockDataRegion13ProfileRegionERN4llvm16FoldingSetNodeIDEPKNS0_15BlockCodeRegionEPKNS_15LocationContextEjPKNS0_9MemRegionE(ptr noundef nonnull align 8 dereferenceable(144) %1, ptr noundef %4, ptr noundef %6, i32 noundef %8, ptr noundef nonnull %10)
  ret void
}